target datalayout = "e-m:e-p270:32:32-p271:32:32-p272:64:64-i64:64-i128:128-f80:128-n8:16:32:64-S128"
target triple = "x86_64-pc-linux-gnu"

%struct.mbedtls_cipher_info_t = type { i32, i32, i32, ptr, i32, i32, i32, ptr }
%struct.mbedtls_cipher_base_t = type { i32, ptr, ptr, ptr, ptr, ptr }
%struct.mbedtls_cipher_context_t = type { ptr, i32, i32, [16 x i8], i64, [16 x i8], i64, ptr }

; Function Attrs: mustprogress uwtable
define hidden i32 @mbedtls_cipher_setup(ptr noundef %0, ptr noundef %1) #4 {
  %3 = alloca i32, align 4
  %4 = alloca ptr, align 8
  %5 = alloca ptr, align 8
  store ptr %0, ptr %4, align 8, !tbaa !36
  store ptr %1, ptr %5, align 8, !tbaa !44
  br label %6

6:                                                ; preds = %2
  br label %7

7:                                                ; preds = %6
  %8 = load ptr, ptr %5, align 8, !tbaa !44
  %9 = icmp eq ptr %8, null
  br i1 %9, label %10, label %11

10:                                               ; preds = %7
  store i32 -24832, ptr %3, align 4
  br label %27

11:                                               ; preds = %7
  %12 = load ptr, ptr %4, align 8, !tbaa !36
  call void @llvm.memset.p0.i64(ptr align 8 %12, i8 0, i64 72, i1 false)
  %13 = load ptr, ptr %5, align 8, !tbaa !44
  %14 = getelementptr inbounds nuw %struct.mbedtls_cipher_info_t, ptr %13, i32 0, i32 7
  %15 = load ptr, ptr %14, align 8, !tbaa !30
  %16 = getelementptr inbounds nuw %struct.mbedtls_cipher_base_t, ptr %15, i32 0, i32 4
  %17 = load ptr, ptr %16, align 8, !tbaa !45
  %18 = call noundef ptr %17()
  %19 = load ptr, ptr %4, align 8, !tbaa !36
  %20 = getelementptr inbounds nuw %struct.mbedtls_cipher_context_t, ptr %19, i32 0, i32 7
  store ptr %18, ptr %20, align 8, !tbaa !38
  %21 = icmp eq ptr null, %18
  br i1 %21, label %22, label %23

22:                                               ; preds = %11
  store i32 -24960, ptr %3, align 4
  br label %27

23:                                               ; preds = %11
  %24 = load ptr, ptr %5, align 8, !tbaa !44
  %25 = load ptr, ptr %4, align 8, !tbaa !36
  %26 = getelementptr inbounds nuw %struct.mbedtls_cipher_context_t, ptr %25, i32 0, i32 0
  store ptr %24, ptr %26, align 8, !tbaa !42
  store i32 0, ptr %3, align 4
  br label %27

27:                                               ; preds = %23, %22, %10
  %28 = load i32, ptr %3, align 4
  ret i32 %28
}