; Function Attrs: mustprogress uwtable
define hidden range(i32 -24960, 1) i32 @mbedtls_cipher_setup(ptr noundef writeonly captures(none) %0, ptr noundef %1) local_unnamed_addr #8 {
  %3 = icmp eq ptr %1, null
  br i1 %3, label %13, label %4

4:                                                ; preds = %2
  tail call void @llvm.memset.p0.i64(ptr noundef nonnull align 8 dereferenceable(72) %0, i8 0, i64 72, i1 false)
  %5 = getelementptr inbounds nuw i8, ptr %1, i64 40
  %6 = load ptr, ptr %5, align 8, !tbaa !22
  %7 = getelementptr inbounds nuw i8, ptr %6, i64 32
  %8 = load ptr, ptr %7, align 8, !tbaa !35
  %9 = tail call noundef ptr %8()
  %10 = getelementptr inbounds nuw i8, ptr %0, i64 64
  store ptr %9, ptr %10, align 8, !tbaa !29
  %11 = icmp eq ptr %9, null
  br i1 %11, label %13, label %12

12:                                               ; preds = %4
  store ptr %1, ptr %0, align 8, !tbaa !33
  br label %13

13:                                               ; preds = %4, %2, %12
  %.0 = phi i32 [ 0, %12 ], [ -24832, %2 ], [ -24960, %4 ]
  ret i32 %.0
}